target datalayout = "e-m:e-p270:32:32-p271:32:32-p272:64:64-i64:64-i128:128-f80:128-n8:16:32:64-S128"
target triple = "x86_64-pc-linux-gnu"

%struct.PartitionBoundInfoData = type { i32, i32, ptr, ptr, ptr, i32, ptr, i32, i32 }

; Function Attrs: nounwind uwtable
define internal i32 @partition_hbound_cmp(i32 noundef %0, i32 noundef %1, i32 noundef %2, i32 noundef %3) #0 {
  %5 = alloca i32, align 4
  %6 = alloca i32, align 4
  %7 = alloca i32, align 4
  %8 = alloca i32, align 4
  %9 = alloca i32, align 4
  store i32 %0, ptr %6, align 4
  store i32 %1, ptr %7, align 4
  store i32 %2, ptr %8, align 4
  store i32 %3, ptr %9, align 4
  %10 = load i32, ptr %6, align 4
  %11 = load i32, ptr %8, align 4
  %12 = icmp slt i32 %10, %11
  br i1 %12, label %13, label %14

13:                                               ; preds = %4
  store i32 -1, ptr %5, align 4
  br label %33

14:                                               ; preds = %4
  %15 = load i32, ptr %6, align 4
  %16 = load i32, ptr %8, align 4
  %17 = icmp sgt i32 %15, %16
  br i1 %17, label %18, label %19

18:                                               ; preds = %14
  store i32 1, ptr %5, align 4
  br label %33

19:                                               ; preds = %14
  %20 = load i32, ptr %6, align 4
  %21 = load i32, ptr %8, align 4
  %22 = icmp eq i32 %20, %21
  br i1 %22, label %23, label %32

23:                                               ; preds = %19
  %24 = load i32, ptr %7, align 4
  %25 = load i32, ptr %9, align 4
  %26 = icmp ne i32 %24, %25
  br i1 %26, label %27, label %32

27:                                               ; preds = %23
  %28 = load i32, ptr %7, align 4
  %29 = load i32, ptr %9, align 4
  %30 = icmp sgt i32 %28, %29
  %31 = select i1 %30, i32 1, i32 -1
  store i32 %31, ptr %5, align 4
  br label %33

32:                                               ; preds = %23, %19
  store i32 0, ptr %5, align 4
  br label %33

33:                                               ; preds = %32, %27, %18, %13
  %34 = load i32, ptr %5, align 4
  ret i32 %34
}

; Function Attrs: inlinehint nounwind uwtable
define internal i32 @DatumGetInt32(i64 noundef %0) #5 {
  %2 = alloca i64, align 8
  store i64 %0, ptr %2, align 8
  %3 = load i64, ptr %2, align 8
  %4 = trunc i64 %3 to i32
  ret i32 %4
}

; Function Attrs: nounwind uwtable
define dso_local i32 @partition_hash_bsearch(ptr noundef %0, i32 noundef %1, i32 noundef %2) #0 {
  %4 = alloca ptr, align 8
  %5 = alloca i32, align 4
  %6 = alloca i32, align 4
  %7 = alloca i32, align 4
  %8 = alloca i32, align 4
  %9 = alloca i32, align 4
  %10 = alloca i32, align 4
  %11 = alloca i32, align 4
  %12 = alloca i32, align 4
  %13 = alloca i32, align 4
  store ptr %0, ptr %4, align 8
  store i32 %1, ptr %5, align 4
  store i32 %2, ptr %6, align 4
  call void @llvm.lifetime.start.p0(i64 4, ptr %7) #9
  call void @llvm.lifetime.start.p0(i64 4, ptr %8) #9
  call void @llvm.lifetime.start.p0(i64 4, ptr %9) #9
  store i32 -1, ptr %7, align 4
  %14 = load ptr, ptr %4, align 8
  %15 = getelementptr inbounds nuw %struct.PartitionBoundInfoData, ptr %14, i32 0, i32 1
  %16 = load i32, ptr %15, align 4
  %17 = sub i32 %16, 1
  store i32 %17, ptr %8, align 4
  br label %18

18:                                               ; preds = %67, %3
  %19 = load i32, ptr %7, align 4
  %20 = load i32, ptr %8, align 4
  %21 = icmp slt i32 %19, %20
  br i1 %21, label %22, label %68

22:                                               ; preds = %18
  call void @llvm.lifetime.start.p0(i64 4, ptr %10) #9
  call void @llvm.lifetime.start.p0(i64 4, ptr %11) #9
  call void @llvm.lifetime.start.p0(i64 4, ptr %12) #9
  %23 = load i32, ptr %7, align 4
  %24 = load i32, ptr %8, align 4
  %25 = add i32 %23, %24
  %26 = add i32 %25, 1
  %27 = sdiv i32 %26, 2
  store i32 %27, ptr %9, align 4
  %28 = load ptr, ptr %4, align 8
  %29 = getelementptr inbounds nuw %struct.PartitionBoundInfoData, ptr %28, i32 0, i32 2
  %30 = load ptr, ptr %29, align 8
  %31 = load i32, ptr %9, align 4
  %32 = sext i32 %31 to i64
  %33 = getelementptr inbounds ptr, ptr %30, i64 %32
  %34 = load ptr, ptr %33, align 8
  %35 = getelementptr inbounds i64, ptr %34, i64 0
  %36 = load i64, ptr %35, align 8
  %37 = call i32 @DatumGetInt32(i64 noundef %36)
  store i32 %37, ptr %11, align 4
  %38 = load ptr, ptr %4, align 8
  %39 = getelementptr inbounds nuw %struct.PartitionBoundInfoData, ptr %38, i32 0, i32 2
  %40 = load ptr, ptr %39, align 8
  %41 = load i32, ptr %9, align 4
  %42 = sext i32 %41 to i64
  %43 = getelementptr inbounds ptr, ptr %40, i64 %42
  %44 = load ptr, ptr %43, align 8
  %45 = getelementptr inbounds i64, ptr %44, i64 1
  %46 = load i64, ptr %45, align 8
  %47 = call i32 @DatumGetInt32(i64 noundef %46)
  store i32 %47, ptr %12, align 4
  %48 = load i32, ptr %11, align 4
  %49 = load i32, ptr %12, align 4
  %50 = load i32, ptr %5, align 4
  %51 = load i32, ptr %6, align 4
  %52 = call i32 @partition_hbound_cmp(i32 noundef %48, i32 noundef %49, i32 noundef %50, i32 noundef %51)
  store i32 %52, ptr %10, align 4
  %53 = load i32, ptr %10, align 4
  %54 = icmp sle i32 %53, 0
  br i1 %54, label %55, label %61

55:                                               ; preds = %22
  %56 = load i32, ptr %9, align 4
  store i32 %56, ptr %7, align 4
  %57 = load i32, ptr %10, align 4
  %58 = icmp eq i32 %57, 0
  br i1 %58, label %59, label %60

59:                                               ; preds = %55
  store i32 3, ptr %13, align 4
  br label %65

60:                                               ; preds = %55
  br label %64

61:                                               ; preds = %22
  %62 = load i32, ptr %9, align 4
  %63 = sub i32 %62, 1
  store i32 %63, ptr %8, align 4
  br label %64

64:                                               ; preds = %61, %60
  store i32 0, ptr %13, align 4
  br label %65

65:                                               ; preds = %64, %59
  call void @llvm.lifetime.end.p0(i64 4, ptr %12) #9
  call void @llvm.lifetime.end.p0(i64 4, ptr %11) #9
  call void @llvm.lifetime.end.p0(i64 4, ptr %10) #9
  %66 = load i32, ptr %13, align 4
  switch i32 %66, label %70 [
    i32 0, label %67
    i32 3, label %68
  ]

67:                                               ; preds = %65
  br label %18, !llvm.loop !38

68:                                               ; preds = %65, %18
  %69 = load i32, ptr %7, align 4
  store i32 1, ptr %13, align 4
  call void @llvm.lifetime.end.p0(i64 4, ptr %9) #9
  call void @llvm.lifetime.end.p0(i64 4, ptr %8) #9
  call void @llvm.lifetime.end.p0(i64 4, ptr %7) #9
  ret i32 %69

70:                                               ; preds = %65
  unreachable
}