; Function Attrs: nofree norecurse nosync nounwind memory(read, inaccessiblemem: none) uwtable
define dso_local range(i32 -1073741824, 1073741824) i32 @partition_hash_bsearch(ptr noundef readonly captures(none) %0, i32 noundef %1, i32 noundef %2) local_unnamed_addr #5 {
  %4 = getelementptr inbounds nuw i8, ptr %0, i64 4
  %5 = load i32, ptr %4, align 4
  %6 = add i32 %5, -1
  %7 = getelementptr inbounds nuw i8, ptr %0, i64 8
  br label %8

8:                                                ; preds = %.thread, %3
  %.019 = phi i32 [ %6, %3 ], [ %31, %.thread ]
  %.018 = phi i32 [ -1, %3 ], [ %33, %.thread ]
  %9 = icmp slt i32 %.018, %.019
  br i1 %9, label %10, label %34

10:                                               ; preds = %8
  %11 = add i32 %.019, 1
  %12 = add i32 %11, %.018
  %13 = sdiv i32 %12, 2
  %14 = load ptr, ptr %7, align 8
  %15 = sext i32 %13 to i64
  %16 = getelementptr inbounds ptr, ptr %14, i64 %15
  %17 = load ptr, ptr %16, align 8
  %18 = load i64, ptr %17, align 8
  %19 = trunc i64 %18 to i32
  %20 = getelementptr inbounds nuw i8, ptr %17, i64 8
  %21 = load i64, ptr %20, align 8
  %22 = trunc i64 %21 to i32
  %23 = icmp sgt i32 %1, %19
  br i1 %23, label %.thread, label %24

24:                                               ; preds = %10
  %25 = icmp slt i32 %1, %19
  br i1 %25, label %.thread39, label %partition_hbound_cmp.exit.thread

.thread39:                                        ; preds = %24
  %26 = add nsw i32 %13, -1
  br label %.thread

partition_hbound_cmp.exit.thread:                 ; preds = %24
  %27 = icmp ne i32 %1, %19
  %.not.i = icmp eq i32 %2, %22
  %or.cond.i = or i1 %27, %.not.i
  %28 = icmp sge i32 %2, %22
  %spec.select = or i1 %27, %28
  %cond.fr27 = freeze i1 %spec.select
  br i1 %cond.fr27, label %.thread, label %29

29:                                               ; preds = %partition_hbound_cmp.exit.thread
  %30 = add nsw i32 %13, -1
  br label %.thread

.thread:                                          ; preds = %29, %10, %partition_hbound_cmp.exit.thread, %.thread39
  %31 = phi i32 [ %26, %.thread39 ], [ %.019, %10 ], [ %.019, %partition_hbound_cmp.exit.thread ], [ %30, %29 ]
  %32 = phi i1 [ false, %.thread39 ], [ true, %10 ], [ true, %partition_hbound_cmp.exit.thread ], [ false, %29 ]
  %switch25.not3037 = phi i1 [ false, %.thread39 ], [ false, %10 ], [ %or.cond.i, %partition_hbound_cmp.exit.thread ], [ %or.cond.i, %29 ]
  %33 = phi i32 [ %.018, %.thread39 ], [ %13, %10 ], [ %13, %partition_hbound_cmp.exit.thread ], [ %.018, %29 ]
  %switch.not = and i1 %32, %switch25.not3037
  br i1 %switch.not, label %34, label %8

34:                                               ; preds = %.thread, %8
  %.1 = phi i32 [ %33, %.thread ], [ %.018, %8 ]
  ret i32 %.1
}